; Function Attrs: nofree nounwind uwtable
define void @Acb_NtkPrintCecStats(ptr noundef readonly captures(none) %0) local_unnamed_addr #4 {
  %2 = getelementptr i8, ptr %0, i64 116
  %.val23 = load i32, ptr %2, align 4
  %3 = icmp sgt i32 %.val23, 1
  br i1 %3, label %.lr.ph, label %._crit_edge

.lr.ph:                                           ; preds = %1
  %4 = getelementptr i8, ptr %0, i64 120
  %.val22 = load ptr, ptr %4, align 8
  %wide.trip.count = zext nneg i32 %.val23 to i64
  br label %5

5:                                                ; preds = %.lr.ph, %13
  %indvars.iv = phi i64 [ 1, %.lr.ph ], [ %indvars.iv.next, %13 ]
  %.030 = phi i32 [ 0, %.lr.ph ], [ %.1, %13 ]
  %.01729 = phi i32 [ 0, %.lr.ph ], [ %.118, %13 ]
  %6 = getelementptr inbounds nuw i8, ptr %.val22, i64 %indvars.iv
  %7 = load i8, ptr %6, align 1
  switch i8 %7, label %10 [
    i8 4, label %13
    i8 3, label %13
    i8 0, label %13
    i8 78, label %8
  ]

8:                                                ; preds = %5
  %9 = add nsw i32 %.01729, 1
  br label %13

10:                                               ; preds = %5
  %11 = icmp eq i8 %7, 21
  %12 = zext i1 %11 to i32
  %spec.select = add nsw i32 %.030, %12
  br label %13

13:                                               ; preds = %5, %5, %5, %10, %8
  %.118 = phi i32 [ %9, %8 ], [ %.01729, %5 ], [ %.01729, %10 ], [ %.01729, %5 ], [ %.01729, %5 ]
  %.1 = phi i32 [ %.030, %8 ], [ %.030, %5 ], [ %spec.select, %10 ], [ %.030, %5 ], [ %.030, %5 ]
  %indvars.iv.next = add nuw nsw i64 %indvars.iv, 1
  %exitcond.not = icmp eq i64 %indvars.iv.next, %wide.trip.count
  br i1 %exitcond.not, label %._crit_edge, label %5, !llvm.loop !29

._crit_edge:                                      ; preds = %13, %1
  %.017.lcssa = phi i32 [ 0, %1 ], [ %.118, %13 ]
  %.0.lcssa = phi i32 [ 0, %1 ], [ %.1, %13 ]
  %14 = getelementptr i8, ptr %0, i64 28
  %.val25 = load i32, ptr %14, align 4
  %15 = tail call i32 (ptr, ...) @printf(ptr noundef nonnull dereferenceable(1) @.str.23, i32 noundef %.val25)
  %16 = getelementptr i8, ptr %0, i64 44
  %.val26 = load i32, ptr %16, align 4
  %17 = tail call i32 (ptr, ...) @printf(ptr noundef nonnull dereferenceable(1) @.str.24, i32 noundef %.val26)
  %.val24 = load i32, ptr %2, align 4
  %18 = add nsw i32 %.val24, -1
  %19 = tail call i32 (ptr, ...) @printf(ptr noundef nonnull dereferenceable(1) @.str.25, i32 noundef %18)
  %20 = tail call i32 (ptr, ...) @printf(ptr noundef nonnull dereferenceable(1) @.str.26, i32 noundef %.017.lcssa)
  %21 = tail call i32 (ptr, ...) @printf(ptr noundef nonnull dereferenceable(1) @.str.27, i32 noundef %.0.lcssa)
  %putchar = tail call i32 @putchar(i32 10)
  ret void
}